; Function Attrs: mustprogress uwtable
define internal fastcc void @"_ZNO8pybind116detail15argument_loaderIJRK8UserTypeEE4callINS_3strENS0_9void_typeERZL28pybind11_init_pybind11_testsRNS_7module_EE3$_0EENSt9enable_ifIXntsr3std7is_voidIT_EE5valueESE_E4typeEOT1_"(ptr dead_on_unwind noalias writable align 8 %0, ptr readonly %.16.val) unnamed_addr #1 align 2 personality ptr @__gxx_personality_v0 {
  %2 = alloca i64, align 8
  %3 = alloca %"class.pybind11::str", align 8
  %4 = alloca i32, align 4
  %.not.i.i.i = icmp eq ptr %.16.val, null
  br i1 %.not.i.i.i, label %5, label %_ZN8pybind116detail7cast_opIRK8UserTypeEENS0_11type_casterINS0_14intrinsic_typeIT_E4typeEvE12cast_op_typeINSt20add_rvalue_referenceIS7_E4typeEEEOSA_.exit.i

5:                                                ; preds = %1
  %6 = tail call ptr @__cxa_allocate_exception(i64 16) #25, !noalias !750
  invoke void @_ZN8pybind1120reference_cast_errorC2Ev(ptr noundef nonnull align 8 dereferenceable(16) %6)
          to label %7 unwind label %8, !noalias !750

7:                                                ; preds = %5
  tail call void @__cxa_throw(ptr nonnull %6, ptr nonnull @_ZTIN8pybind1120reference_cast_errorE, ptr nonnull @_ZN8pybind1120reference_cast_errorD2Ev) #30, !noalias !750
  unreachable

common.resume.i:                                  ; preds = %20, %8
  %common.resume.op.i = phi { ptr, i32 } [ %9, %8 ], [ %21, %20 ]
  resume { ptr, i32 } %common.resume.op.i

8:                                                ; preds = %5
  %9 = landingpad { ptr, i32 }
          cleanup
  tail call void @__cxa_free_exception(ptr %6) #25, !noalias !750
  br label %common.resume.i

_ZN8pybind116detail7cast_opIRK8UserTypeEENS0_11type_casterINS0_14intrinsic_typeIT_E4typeEvE12cast_op_typeINSt20add_rvalue_referenceIS7_E4typeEEEOSA_.exit.i: ; preds = %1
  call void @llvm.lifetime.start.p0(i64 8, ptr nonnull %3), !noalias !750
  call void @llvm.lifetime.start.p0(i64 4, ptr nonnull %4), !noalias !750
  call void @llvm.lifetime.start.p0(i64 8, ptr nonnull %2), !noalias !753
  store i64 12, ptr %2, align 8, !noalias !756
  call void @_ZN8pybind113strC2ImTnNSt9enable_ifIXsr3std11is_integralIT_EE5valueEiE4typeELi0EEEPKcRKS3_(ptr noundef nonnull align 8 dereferenceable(8) %3, ptr noundef nonnull @.str.163, ptr noundef nonnull align 8 dereferenceable(8) %2), !noalias !753
  call void @llvm.lifetime.end.p0(i64 8, ptr nonnull %2), !noalias !753
  %10 = load i32, ptr %.16.val, align 4, !noalias !753
  store i32 %10, ptr %4, align 4, !noalias !753
  invoke void @_ZNK8pybind113str6formatIJiEEES0_DpOT_(ptr dead_on_unwind writable sret(%"class.pybind11::str") align 8 %0, ptr noundef nonnull align 8 dereferenceable(8) %3, ptr noundef nonnull align 4 dereferenceable(4) %4)
          to label %11 unwind label %20

11:                                               ; preds = %_ZN8pybind116detail7cast_opIRK8UserTypeEENS0_11type_casterINS0_14intrinsic_typeIT_E4typeEvE12cast_op_typeINSt20add_rvalue_referenceIS7_E4typeEEEOSA_.exit.i
  %12 = load ptr, ptr %3, align 8, !noalias !753
  %.not.i.i.i.i.i.i = icmp eq ptr %12, null
  br i1 %.not.i.i.i.i.i.i, label %"_ZNO8pybind116detail15argument_loaderIJRK8UserTypeEE9call_implINS_3strERZL28pybind11_init_pybind11_testsRNS_7module_EE3$_0JLm0EENS0_9void_typeEEET_OT0_St16integer_sequenceImJXspT1_EEEOT2_.exit", label %13

13:                                               ; preds = %11
  %14 = load i64, ptr %12, align 8
  %15 = add nsw i64 %14, -1
  store i64 %15, ptr %12, align 8
  %.not.i.i.i.i.i.i.i = icmp eq i64 %15, 0
  br i1 %.not.i.i.i.i.i.i.i, label %16, label %"_ZNO8pybind116detail15argument_loaderIJRK8UserTypeEE9call_implINS_3strERZL28pybind11_init_pybind11_testsRNS_7module_EE3$_0JLm0EENS0_9void_typeEEET_OT0_St16integer_sequenceImJXspT1_EEEOT2_.exit"

16:                                               ; preds = %13
  invoke void @_Py_Dealloc(ptr noundef nonnull %12)
          to label %"_ZNO8pybind116detail15argument_loaderIJRK8UserTypeEE9call_implINS_3strERZL28pybind11_init_pybind11_testsRNS_7module_EE3$_0JLm0EENS0_9void_typeEEET_OT0_St16integer_sequenceImJXspT1_EEEOT2_.exit" unwind label %17

17:                                               ; preds = %16
  %18 = landingpad { ptr, i32 }
          catch ptr null
  %19 = extractvalue { ptr, i32 } %18, 0
  call void @__clang_call_terminate(ptr %19) #26
  unreachable

20:                                               ; preds = %_ZN8pybind116detail7cast_opIRK8UserTypeEENS0_11type_casterINS0_14intrinsic_typeIT_E4typeEvE12cast_op_typeINSt20add_rvalue_referenceIS7_E4typeEEEOSA_.exit.i
  %21 = landingpad { ptr, i32 }
          cleanup
  call void @_ZN8pybind113strD2Ev(ptr noundef nonnull align 8 dereferenceable(8) %3) #25
  br label %common.resume.i

"_ZNO8pybind116detail15argument_loaderIJRK8UserTypeEE9call_implINS_3strERZL28pybind11_init_pybind11_testsRNS_7module_EE3$_0JLm0EENS0_9void_typeEEET_OT0_St16integer_sequenceImJXspT1_EEEOT2_.exit": ; preds = %11, %13, %16
  call void @llvm.lifetime.end.p0(i64 8, ptr nonnull %3), !noalias !750
  call void @llvm.lifetime.end.p0(i64 4, ptr nonnull %4), !noalias !750
  ret void
}